; Function Attrs: mustprogress nofree norecurse nosync nounwind willreturn memory(argmem: readwrite) uwtable
define internal noundef zeroext i1 @_ZNSt17_Function_handlerIFN7testing15AssertionResultEPNS0_12_GLOBAL__N_121NonEqualityComparableEEZNS0_19exceptions_internal19ExceptionSafetyTestIS3_E12WrapContractIPFS1_PNS2_11NonNegativeEEEESt8functionIS5_ERKT_EUlS4_E_E10_M_managerERSt9_Any_dataRKSL_St18_Manager_operation(ptr nocapture noundef nonnull writeonly align 8 dereferenceable(16) %__dest, ptr noundef nonnull align 8 dereferenceable(16) %__source, i32 noundef %__op) #15 align 2 personality ptr @__gxx_personality_v0 {
entry:
  switch i32 %__op, label %sw.epilog [
    i32 0, label %sw.bb
    i32 1, label %sw.bb1
    i32 2, label %sw.bb4.i
  ]

sw.bb:                                            ; preds = %entry
  store ptr @_ZTIZN7testing19exceptions_internal19ExceptionSafetyTestINS_12_GLOBAL__N_121NonEqualityComparableEE12WrapContractIPFNS_15AssertionResultEPNS2_11NonNegativeEEEESt8functionIFS6_PS3_EERKT_EUlSC_E_, ptr %__dest, align 8
  br label %sw.epilog

sw.bb1:                                           ; preds = %entry
  store ptr %__source, ptr %__dest, align 8
  br label %sw.epilog

sw.bb4.i:                                         ; preds = %entry
  %call5.val.i = load i64, ptr %__source, align 8
  store i64 %call5.val.i, ptr %__dest, align 8
  br label %sw.epilog

sw.epilog:                                        ; preds = %entry, %sw.bb4.i, %sw.bb1, %sw.bb
  ret i1 false
}